; Function Attrs: nounwind uwtable
define ptr @buildLogicFromLTLNode_combinationalOnly(ptr noundef %0, ptr noundef captures(none) %1) local_unnamed_addr #3 {
  %3 = getelementptr inbounds nuw i8, ptr %1, i64 16
  %4 = load ptr, ptr %3, align 8, !tbaa !51
  %.not = icmp eq ptr %4, null
  br i1 %.not, label %5, label %common.ret

5:                                                ; preds = %2
  %6 = load i32, ptr %1, align 8, !tbaa !3
  switch i32 %6, label %31 [
    i32 0, label %7
    i32 1, label %15
    i32 2, label %23
    i32 4, label %30
    i32 5, label %30
    i32 6, label %30
    i32 7, label %30
  ]

common.ret.sink.split:                            ; preds = %7, %15, %23
  %.sink = phi ptr [ %29, %23 ], [ %22, %15 ], [ %14, %7 ]
  store ptr %.sink, ptr %3, align 8, !tbaa !51
  br label %common.ret

common.ret:                                       ; preds = %common.ret.sink.split, %2
  %common.ret.op = phi ptr [ %4, %2 ], [ %.sink, %common.ret.sink.split ]
  ret ptr %common.ret.op

7:                                                ; preds = %5
  %8 = getelementptr inbounds nuw i8, ptr %1, i64 24
  %9 = load ptr, ptr %8, align 8, !tbaa !46
  %10 = tail call ptr @buildLogicFromLTLNode_combinationalOnly(ptr noundef %0, ptr noundef %9)
  %11 = getelementptr inbounds nuw i8, ptr %1, i64 32
  %12 = load ptr, ptr %11, align 8, !tbaa !48
  %13 = tail call ptr @buildLogicFromLTLNode_combinationalOnly(ptr noundef %0, ptr noundef %12)
  %14 = tail call ptr @Aig_And(ptr noundef %0, ptr noundef %10, ptr noundef %13) #23
  br label %common.ret.sink.split

15:                                               ; preds = %5
  %16 = getelementptr inbounds nuw i8, ptr %1, i64 24
  %17 = load ptr, ptr %16, align 8, !tbaa !46
  %18 = tail call ptr @buildLogicFromLTLNode_combinationalOnly(ptr noundef %0, ptr noundef %17)
  %19 = getelementptr inbounds nuw i8, ptr %1, i64 32
  %20 = load ptr, ptr %19, align 8, !tbaa !48
  %21 = tail call ptr @buildLogicFromLTLNode_combinationalOnly(ptr noundef %0, ptr noundef %20)
  %22 = tail call ptr @Aig_Or(ptr noundef %0, ptr noundef %18, ptr noundef %21) #23
  br label %common.ret.sink.split

23:                                               ; preds = %5
  %24 = getelementptr inbounds nuw i8, ptr %1, i64 24
  %25 = load ptr, ptr %24, align 8, !tbaa !46
  %26 = tail call ptr @buildLogicFromLTLNode_combinationalOnly(ptr noundef %0, ptr noundef %25)
  %27 = ptrtoint ptr %26 to i64
  %28 = xor i64 %27, 1
  %29 = inttoptr i64 %28 to ptr
  br label %common.ret.sink.split

30:                                               ; preds = %5, %5, %5, %5
  %puts = tail call i32 @puts(ptr nonnull dereferenceable(1) @str.3)
  tail call void @exit(i32 noundef 0) #26
  unreachable

31:                                               ; preds = %5
  %puts28 = tail call i32 @puts(ptr nonnull dereferenceable(1) @str.6)
  tail call void @exit(i32 noundef 0) #26
  unreachable
}